target datalayout = "e-m:e-p270:32:32-p271:32:32-p272:64:64-i64:64-i128:128-f80:128-n8:16:32:64-S128"
target triple = "x86_64-pc-linux-gnu"

%struct.AV1PixelRect = type { i32, i32, i32, i32 }
%struct.AV1Common = type { %struct.CurrentFrame, %struct.aom_internal_error_info, i32, i32, i32, i32, i32, i32, i8, i8, [33 x i32], i32, ptr, ptr, [8 x i32], %struct.scale_factors, [8 x %struct.scale_factors], [8 x ptr], i32, i32, i32, %struct.FeatureFlags, %struct.CommonModeInfoParams, %struct.CommonQuantParams, %struct.segmentation, ptr, [8 x i8], %struct.loop_filter_info_n, %struct.loopfilter, [3 x %struct.RestorationInfo], ptr, ptr, %struct.yv12_buffer_config, %struct.CdefInfo, %struct.aom_film_grain_t, %struct.DeltaQInfo, [8 x %struct.WarpedMotionParams], %struct.SequenceHeader, ptr, ptr, %struct.CommonTileParams, ptr, %struct.CommonContexts, i32, [8 x i32], ptr, i32, [8 x i32], [8 x i8], i32, i32, i32, i32 }
%struct.CurrentFrame = type { i8, i8, i32, i32, i32, %struct.SkipModeInfo, i32, i32 }
%struct.SkipModeInfo = type { i32, i32, i32, i32 }
%struct.aom_internal_error_info = type { i32, i32, [200 x i8], i32, [1 x %struct.__jmp_buf_tag] }
%struct.__jmp_buf_tag = type { [8 x i64], i32, %struct.__sigset_t }
%struct.__sigset_t = type { [16 x i64] }
%struct.scale_factors = type { i32, i32, i32, i32, ptr, ptr }
%struct.FeatureFlags = type { i8, i8, i8, i8, i8, i8, i8, i8, i8, i8, i8, i8, i8, i8, i32, i32, i8 }
%struct.CommonModeInfoParams = type { i32, i32, i32, i32, i32, ptr, i32, i32, i8, ptr, i32, i32, ptr, ptr, ptr, ptr }
%struct.CommonQuantParams = type { i32, i32, i32, i32, i32, i32, [8 x [2 x i16]], [8 x [2 x i16]], [8 x [2 x i16]], [16 x [3 x [19 x ptr]]], [16 x [3 x [19 x ptr]]], [8 x [19 x ptr]], [8 x [19 x ptr]], [8 x [19 x ptr]], i8, i32, i32, i32 }
%struct.segmentation = type { i8, i8, i8, i8, [8 x [8 x i16]], [8 x i32], i32, i8 }
%struct.loop_filter_info_n = type { [64 x %struct.loop_filter_thresh], [3 x [8 x [2 x [8 x [2 x i8]]]]] }
%struct.loop_filter_thresh = type { [16 x i8], [16 x i8], [16 x i8] }
%struct.loopfilter = type { [2 x i32], i32, i32, i32, i8, i8, [8 x i8], [2 x i8], i32 }
%struct.RestorationInfo = type { i32, i32, i32, i32, i32, ptr, %struct.RestorationStripeBoundaries, i32 }
%struct.RestorationStripeBoundaries = type { ptr, ptr, i32, i32 }
%struct.yv12_buffer_config = type { %union.anon, %union.anon.0, %union.anon.2, %union.anon.4, %union.anon.6, %union.anon.8, i32, [3 x ptr], ptr, i32, ptr, i64, i32, i64, i32, i32, i32, i32, i32, i32, i8, i32, i32, i32, i32, i32, i32, ptr }
%union.anon = type { %struct.anon }
%struct.anon = type { i32, i32 }
%union.anon.0 = type { %struct.anon.1 }
%struct.anon.1 = type { i32, i32 }
%union.anon.2 = type { %struct.anon.3 }
%struct.anon.3 = type { i32, i32 }
%union.anon.4 = type { %struct.anon.5 }
%struct.anon.5 = type { i32, i32 }
%union.anon.6 = type { %struct.anon.7 }
%struct.anon.7 = type { i32, i32 }
%union.anon.8 = type { %struct.anon.9 }
%struct.anon.9 = type { ptr, ptr, ptr }
%struct.CdefInfo = type { i32, i32, [16 x i32], [16 x i32], i32 }
%struct.aom_film_grain_t = type { i32, i32, [14 x [2 x i32]], i32, [10 x [2 x i32]], i32, [10 x [2 x i32]], i32, i32, i32, [24 x i32], [25 x i32], [25 x i32], i32, i32, i32, i32, i32, i32, i32, i32, i32, i32, i32, i32, i16 }
%struct.DeltaQInfo = type { i32, i32, i32, i32, i32 }
%struct.WarpedMotionParams = type { [8 x i32], i16, i16, i16, i16, i8, i8 }
%struct.SequenceHeader = type { i32, i32, i32, i32, i8, i32, i32, i8, i32, i32, %struct.OrderHintInfo, i8, i8, i8, i8, i8, i8, i8, i8, i8, i8, i8, i8, i8, i8, i32, i8, i8, i32, i32, i32, i32, i32, i32, i32, i8, i8, i32, [32 x i32], i32, %struct.aom_timing, i8, %struct.aom_dec_model_info, i8, [32 x i8], [32 x i8], [33 x %struct.aom_dec_model_op_parameters] }
%struct.OrderHintInfo = type { i32, i32, i32, i32 }
%struct.aom_timing = type { i32, i32, i32, i32 }
%struct.aom_dec_model_info = type { i32, i32, i32, i32 }
%struct.aom_dec_model_op_parameters = type { i32, i64, i64, i32, i32, i32, i32, i32 }
%struct.CommonTileParams = type { i32, i32, i32, i32, i32, i32, i32, i32, i32, i32, i32, i32, i32, i32, i32, [65 x i32], [65 x i32], i32, i32 }
%struct.CommonContexts = type { ptr, [3 x ptr], ptr, i32, i32, i32 }

@mi_size_high = internal constant [22 x i8] c"\01\02\01\02\04\02\04\08\04\08\10\08\10 \10 \04\01\08\02\10\04", align 16
@mi_size_wide = internal constant [22 x i8] c"\01\01\02\02\02\04\04\04\08\08\08\10\10\10  \01\04\02\08\04\10", align 16

; Function Attrs: nounwind uwtable
define internal i32 @av1_superres_scaled(ptr noundef %0) #0 {
  %2 = alloca ptr, align 8
  store ptr %0, ptr %2, align 8
  %3 = load ptr, ptr %2, align 8
  %4 = getelementptr inbounds nuw %struct.AV1Common, ptr %3, i32 0, i32 2
  %5 = load i32, ptr %4, align 8
  %6 = load ptr, ptr %2, align 8
  %7 = getelementptr inbounds nuw %struct.AV1Common, ptr %6, i32 0, i32 6
  %8 = load i32, ptr %7, align 8
  %9 = icmp eq i32 %5, %8
  %10 = xor i1 %9, true
  %11 = zext i1 %10 to i32
  ret i32 %11
}

; Function Attrs: nounwind uwtable
define hidden i32 @av1_lr_count_units_in_tile(i32 noundef %0, i32 noundef %1) #0 {
  %3 = alloca i32, align 4
  %4 = alloca i32, align 4
  store i32 %0, ptr %3, align 4
  store i32 %1, ptr %4, align 4
  %5 = load i32, ptr %4, align 4
  %6 = load i32, ptr %3, align 4
  %7 = ashr i32 %6, 1
  %8 = add nsw i32 %5, %7
  %9 = load i32, ptr %3, align 4
  %10 = sdiv i32 %8, %9
  %11 = icmp sgt i32 %10, 1
  br i1 %11, label %12, label %19

12:                                               ; preds = %2
  %13 = load i32, ptr %4, align 4
  %14 = load i32, ptr %3, align 4
  %15 = ashr i32 %14, 1
  %16 = add nsw i32 %13, %15
  %17 = load i32, ptr %3, align 4
  %18 = sdiv i32 %16, %17
  br label %20

19:                                               ; preds = %2
  br label %20

20:                                               ; preds = %19, %12
  %21 = phi i32 [ %18, %12 ], [ 1, %19 ]
  ret i32 %21
}

; Function Attrs: nounwind uwtable
define hidden { i64, i64 } @av1_whole_frame_rect(ptr noundef %0, i32 noundef %1) #0 {
  %3 = alloca %struct.AV1PixelRect, align 4
  %4 = alloca ptr, align 8
  %5 = alloca i32, align 4
  %6 = alloca i32, align 4
  %7 = alloca i32, align 4
  store ptr %0, ptr %4, align 8
  store i32 %1, ptr %5, align 4
  %8 = load i32, ptr %5, align 4
  %9 = icmp ne i32 %8, 0
  br i1 %9, label %10, label %16

10:                                               ; preds = %2
  %11 = load ptr, ptr %4, align 8
  %12 = getelementptr inbounds nuw %struct.AV1Common, ptr %11, i32 0, i32 37
  %13 = getelementptr inbounds nuw %struct.SequenceHeader, ptr %12, i32 0, i32 32
  %14 = load i32, ptr %13, align 16
  %15 = icmp ne i32 %14, 0
  br label %16

16:                                               ; preds = %10, %2
  %17 = phi i1 [ false, %2 ], [ %15, %10 ]
  %18 = zext i1 %17 to i32
  store i32 %18, ptr %6, align 4
  %19 = load i32, ptr %5, align 4
  %20 = icmp ne i32 %19, 0
  br i1 %20, label %21, label %27

21:                                               ; preds = %16
  %22 = load ptr, ptr %4, align 8
  %23 = getelementptr inbounds nuw %struct.AV1Common, ptr %22, i32 0, i32 37
  %24 = getelementptr inbounds nuw %struct.SequenceHeader, ptr %23, i32 0, i32 33
  %25 = load i32, ptr %24, align 4
  %26 = icmp ne i32 %25, 0
  br label %27

27:                                               ; preds = %21, %16
  %28 = phi i1 [ false, %16 ], [ %26, %21 ]
  %29 = zext i1 %28 to i32
  store i32 %29, ptr %7, align 4
  %30 = getelementptr inbounds nuw %struct.AV1PixelRect, ptr %3, i32 0, i32 1
  store i32 0, ptr %30, align 4
  %31 = load ptr, ptr %4, align 8
  %32 = getelementptr inbounds nuw %struct.AV1Common, ptr %31, i32 0, i32 3
  %33 = load i32, ptr %32, align 4
  %34 = load i32, ptr %7, align 4
  %35 = shl i32 1, %34
  %36 = ashr i32 %35, 1
  %37 = add nsw i32 %33, %36
  %38 = load i32, ptr %7, align 4
  %39 = ashr i32 %37, %38
  %40 = getelementptr inbounds nuw %struct.AV1PixelRect, ptr %3, i32 0, i32 3
  store i32 %39, ptr %40, align 4
  %41 = getelementptr inbounds nuw %struct.AV1PixelRect, ptr %3, i32 0, i32 0
  store i32 0, ptr %41, align 4
  %42 = load ptr, ptr %4, align 8
  %43 = getelementptr inbounds nuw %struct.AV1Common, ptr %42, i32 0, i32 6
  %44 = load i32, ptr %43, align 8
  %45 = load i32, ptr %6, align 4
  %46 = shl i32 1, %45
  %47 = ashr i32 %46, 1
  %48 = add nsw i32 %44, %47
  %49 = load i32, ptr %6, align 4
  %50 = ashr i32 %48, %49
  %51 = getelementptr inbounds nuw %struct.AV1PixelRect, ptr %3, i32 0, i32 2
  store i32 %50, ptr %51, align 4
  %52 = load { i64, i64 }, ptr %3, align 4
  ret { i64, i64 } %52
}

; Function Attrs: nounwind uwtable
define hidden i32 @av1_loop_restoration_corners_in_sb(ptr noundef %0, i32 noundef %1, i32 noundef %2, i32 noundef %3, i8 noundef zeroext %4, ptr noundef %5, ptr noundef %6, ptr noundef %7, ptr noundef %8) #0 {
  %10 = alloca i32, align 4
  %11 = alloca ptr, align 8
  %12 = alloca i32, align 4
  %13 = alloca i32, align 4
  %14 = alloca i32, align 4
  %15 = alloca i8, align 1
  %16 = alloca ptr, align 8
  %17 = alloca ptr, align 8
  %18 = alloca ptr, align 8
  %19 = alloca ptr, align 8
  %20 = alloca i32, align 4
  %21 = alloca %struct.AV1PixelRect, align 4
  %22 = alloca i32, align 4
  %23 = alloca i32, align 4
  %24 = alloca i32, align 4
  %25 = alloca i32, align 4
  %26 = alloca i32, align 4
  %27 = alloca i32, align 4
  %28 = alloca i32, align 4
  %29 = alloca i32, align 4
  %30 = alloca ptr, align 8
  %31 = alloca i32, align 4
  %32 = alloca i32, align 4
  %33 = alloca i32, align 4
  %34 = alloca i32, align 4
  %35 = alloca i32, align 4
  %36 = alloca i32, align 4
  %37 = alloca i32, align 4
  %38 = alloca i32, align 4
  %39 = alloca i32, align 4
  %40 = alloca i32, align 4
  %41 = alloca i32, align 4
  %42 = alloca i32, align 4
  %43 = alloca i32, align 4
  store ptr %0, ptr %11, align 8
  store i32 %1, ptr %12, align 4
  store i32 %2, ptr %13, align 4
  store i32 %3, ptr %14, align 4
  store i8 %4, ptr %15, align 1
  store ptr %5, ptr %16, align 8
  store ptr %6, ptr %17, align 8
  store ptr %7, ptr %18, align 8
  store ptr %8, ptr %19, align 8
  %44 = load i8, ptr %15, align 1
  %45 = zext i8 %44 to i32
  %46 = load ptr, ptr %11, align 8
  %47 = getelementptr inbounds nuw %struct.AV1Common, ptr %46, i32 0, i32 37
  %48 = getelementptr inbounds nuw %struct.SequenceHeader, ptr %47, i32 0, i32 7
  %49 = load i8, ptr %48, align 4
  %50 = zext i8 %49 to i32
  %51 = icmp ne i32 %45, %50
  br i1 %51, label %52, label %53

52:                                               ; preds = %9
  store i32 0, ptr %10, align 4
  br label %246

53:                                               ; preds = %9
  %54 = load ptr, ptr %11, align 8
  %55 = getelementptr inbounds nuw %struct.AV1Common, ptr %54, i32 0, i32 29
  %56 = load i32, ptr %12, align 4
  %57 = sext i32 %56 to i64
  %58 = getelementptr inbounds [3 x %struct.RestorationInfo], ptr %55, i64 0, i64 %57
  %59 = getelementptr inbounds nuw %struct.RestorationInfo, ptr %58, i32 0, i32 0
  %60 = load i32, ptr %59, align 8
  %61 = icmp eq i32 %60, 0
  br i1 %61, label %62, label %63

62:                                               ; preds = %53
  store i32 0, ptr %10, align 4
  br label %246

63:                                               ; preds = %53
  %64 = load i32, ptr %12, align 4
  %65 = icmp sgt i32 %64, 0
  %66 = zext i1 %65 to i32
  store i32 %66, ptr %20, align 4
  %67 = load ptr, ptr %11, align 8
  %68 = load i32, ptr %20, align 4
  %69 = call { i64, i64 } @av1_whole_frame_rect(ptr noundef %67, i32 noundef %68)
  %70 = getelementptr inbounds nuw { i64, i64 }, ptr %21, i32 0, i32 0
  %71 = extractvalue { i64, i64 } %69, 0
  store i64 %71, ptr %70, align 4
  %72 = getelementptr inbounds nuw { i64, i64 }, ptr %21, i32 0, i32 1
  %73 = extractvalue { i64, i64 } %69, 1
  store i64 %73, ptr %72, align 4
  %74 = getelementptr inbounds nuw %struct.AV1PixelRect, ptr %21, i32 0, i32 2
  %75 = load i32, ptr %74, align 4
  %76 = getelementptr inbounds nuw %struct.AV1PixelRect, ptr %21, i32 0, i32 0
  %77 = load i32, ptr %76, align 4
  %78 = sub nsw i32 %75, %77
  store i32 %78, ptr %22, align 4
  %79 = getelementptr inbounds nuw %struct.AV1PixelRect, ptr %21, i32 0, i32 3
  %80 = load i32, ptr %79, align 4
  %81 = getelementptr inbounds nuw %struct.AV1PixelRect, ptr %21, i32 0, i32 1
  %82 = load i32, ptr %81, align 4
  %83 = sub nsw i32 %80, %82
  store i32 %83, ptr %23, align 4
  store i32 0, ptr %24, align 4
  store i32 0, ptr %25, align 4
  %84 = load i32, ptr %13, align 4
  %85 = sub nsw i32 %84, 0
  store i32 %85, ptr %26, align 4
  %86 = load i32, ptr %14, align 4
  %87 = sub nsw i32 %86, 0
  store i32 %87, ptr %27, align 4
  %88 = load i32, ptr %26, align 4
  %89 = load i8, ptr %15, align 1
  %90 = zext i8 %89 to i64
  %91 = getelementptr inbounds [22 x i8], ptr @mi_size_high, i64 0, i64 %90
  %92 = load i8, ptr %91, align 1
  %93 = zext i8 %92 to i32
  %94 = add nsw i32 %88, %93
  store i32 %94, ptr %28, align 4
  %95 = load i32, ptr %27, align 4
  %96 = load i8, ptr %15, align 1
  %97 = zext i8 %96 to i64
  %98 = getelementptr inbounds [22 x i8], ptr @mi_size_wide, i64 0, i64 %97
  %99 = load i8, ptr %98, align 1
  %100 = zext i8 %99 to i32
  %101 = add nsw i32 %95, %100
  store i32 %101, ptr %29, align 4
  %102 = load ptr, ptr %11, align 8
  %103 = getelementptr inbounds nuw %struct.AV1Common, ptr %102, i32 0, i32 29
  %104 = load i32, ptr %12, align 4
  %105 = sext i32 %104 to i64
  %106 = getelementptr inbounds [3 x %struct.RestorationInfo], ptr %103, i64 0, i64 %105
  store ptr %106, ptr %30, align 8
  %107 = load ptr, ptr %30, align 8
  %108 = getelementptr inbounds nuw %struct.RestorationInfo, ptr %107, i32 0, i32 1
  %109 = load i32, ptr %108, align 4
  store i32 %109, ptr %31, align 4
  %110 = load i32, ptr %31, align 4
  %111 = load i32, ptr %22, align 4
  %112 = call i32 @av1_lr_count_units_in_tile(i32 noundef %110, i32 noundef %111)
  store i32 %112, ptr %32, align 4
  %113 = load i32, ptr %31, align 4
  %114 = load i32, ptr %23, align 4
  %115 = call i32 @av1_lr_count_units_in_tile(i32 noundef %113, i32 noundef %114)
  store i32 %115, ptr %33, align 4
  %116 = load i32, ptr %20, align 4
  %117 = icmp ne i32 %116, 0
  br i1 %117, label %118, label %124

118:                                              ; preds = %63
  %119 = load ptr, ptr %11, align 8
  %120 = getelementptr inbounds nuw %struct.AV1Common, ptr %119, i32 0, i32 37
  %121 = getelementptr inbounds nuw %struct.SequenceHeader, ptr %120, i32 0, i32 32
  %122 = load i32, ptr %121, align 16
  %123 = icmp ne i32 %122, 0
  br label %124

124:                                              ; preds = %118, %63
  %125 = phi i1 [ false, %63 ], [ %123, %118 ]
  %126 = zext i1 %125 to i32
  store i32 %126, ptr %34, align 4
  %127 = load i32, ptr %20, align 4
  %128 = icmp ne i32 %127, 0
  br i1 %128, label %129, label %135

129:                                              ; preds = %124
  %130 = load ptr, ptr %11, align 8
  %131 = getelementptr inbounds nuw %struct.AV1Common, ptr %130, i32 0, i32 37
  %132 = getelementptr inbounds nuw %struct.SequenceHeader, ptr %131, i32 0, i32 33
  %133 = load i32, ptr %132, align 4
  %134 = icmp ne i32 %133, 0
  br label %135

135:                                              ; preds = %129, %124
  %136 = phi i1 [ false, %124 ], [ %134, %129 ]
  %137 = zext i1 %136 to i32
  store i32 %137, ptr %35, align 4
  %138 = load i32, ptr %34, align 4
  %139 = ashr i32 4, %138
  store i32 %139, ptr %36, align 4
  %140 = load i32, ptr %35, align 4
  %141 = ashr i32 4, %140
  store i32 %141, ptr %37, align 4
  %142 = load ptr, ptr %11, align 8
  %143 = call i32 @av1_superres_scaled(ptr noundef %142)
  %144 = icmp ne i32 %143, 0
  br i1 %144, label %145, label %152

145:                                              ; preds = %135
  %146 = load i32, ptr %36, align 4
  %147 = load ptr, ptr %11, align 8
  %148 = getelementptr inbounds nuw %struct.AV1Common, ptr %147, i32 0, i32 8
  %149 = load i8, ptr %148, align 16
  %150 = zext i8 %149 to i32
  %151 = mul nsw i32 %146, %150
  br label %154

152:                                              ; preds = %135
  %153 = load i32, ptr %36, align 4
  br label %154

154:                                              ; preds = %152, %145
  %155 = phi i32 [ %151, %145 ], [ %153, %152 ]
  store i32 %155, ptr %38, align 4
  %156 = load i32, ptr %37, align 4
  store i32 %156, ptr %39, align 4
  %157 = load ptr, ptr %11, align 8
  %158 = call i32 @av1_superres_scaled(ptr noundef %157)
  %159 = icmp ne i32 %158, 0
  br i1 %159, label %160, label %163

160:                                              ; preds = %154
  %161 = load i32, ptr %31, align 4
  %162 = mul nsw i32 %161, 8
  br label %165

163:                                              ; preds = %154
  %164 = load i32, ptr %31, align 4
  br label %165

165:                                              ; preds = %163, %160
  %166 = phi i32 [ %162, %160 ], [ %164, %163 ]
  store i32 %166, ptr %40, align 4
  %167 = load i32, ptr %31, align 4
  store i32 %167, ptr %41, align 4
  %168 = load i32, ptr %40, align 4
  %169 = sub nsw i32 %168, 1
  store i32 %169, ptr %42, align 4
  %170 = load i32, ptr %41, align 4
  %171 = sub nsw i32 %170, 1
  store i32 %171, ptr %43, align 4
  %172 = load i32, ptr %27, align 4
  %173 = load i32, ptr %38, align 4
  %174 = mul nsw i32 %172, %173
  %175 = load i32, ptr %42, align 4
  %176 = add nsw i32 %174, %175
  %177 = load i32, ptr %40, align 4
  %178 = sdiv i32 %176, %177
  %179 = load ptr, ptr %16, align 8
  store i32 %178, ptr %179, align 4
  %180 = load i32, ptr %26, align 4
  %181 = load i32, ptr %39, align 4
  %182 = mul nsw i32 %180, %181
  %183 = load i32, ptr %43, align 4
  %184 = add nsw i32 %182, %183
  %185 = load i32, ptr %41, align 4
  %186 = sdiv i32 %184, %185
  %187 = load ptr, ptr %18, align 8
  store i32 %186, ptr %187, align 4
  %188 = load i32, ptr %29, align 4
  %189 = load i32, ptr %38, align 4
  %190 = mul nsw i32 %188, %189
  %191 = load i32, ptr %42, align 4
  %192 = add nsw i32 %190, %191
  %193 = load i32, ptr %40, align 4
  %194 = sdiv i32 %192, %193
  %195 = load i32, ptr %32, align 4
  %196 = icmp slt i32 %194, %195
  br i1 %196, label %197, label %205

197:                                              ; preds = %165
  %198 = load i32, ptr %29, align 4
  %199 = load i32, ptr %38, align 4
  %200 = mul nsw i32 %198, %199
  %201 = load i32, ptr %42, align 4
  %202 = add nsw i32 %200, %201
  %203 = load i32, ptr %40, align 4
  %204 = sdiv i32 %202, %203
  br label %207

205:                                              ; preds = %165
  %206 = load i32, ptr %32, align 4
  br label %207

207:                                              ; preds = %205, %197
  %208 = phi i32 [ %204, %197 ], [ %206, %205 ]
  %209 = load ptr, ptr %17, align 8
  store i32 %208, ptr %209, align 4
  %210 = load i32, ptr %28, align 4
  %211 = load i32, ptr %39, align 4
  %212 = mul nsw i32 %210, %211
  %213 = load i32, ptr %43, align 4
  %214 = add nsw i32 %212, %213
  %215 = load i32, ptr %41, align 4
  %216 = sdiv i32 %214, %215
  %217 = load i32, ptr %33, align 4
  %218 = icmp slt i32 %216, %217
  br i1 %218, label %219, label %227

219:                                              ; preds = %207
  %220 = load i32, ptr %28, align 4
  %221 = load i32, ptr %39, align 4
  %222 = mul nsw i32 %220, %221
  %223 = load i32, ptr %43, align 4
  %224 = add nsw i32 %222, %223
  %225 = load i32, ptr %41, align 4
  %226 = sdiv i32 %224, %225
  br label %229

227:                                              ; preds = %207
  %228 = load i32, ptr %33, align 4
  br label %229

229:                                              ; preds = %227, %219
  %230 = phi i32 [ %226, %219 ], [ %228, %227 ]
  %231 = load ptr, ptr %19, align 8
  store i32 %230, ptr %231, align 4
  %232 = load ptr, ptr %16, align 8
  %233 = load i32, ptr %232, align 4
  %234 = load ptr, ptr %17, align 8
  %235 = load i32, ptr %234, align 4
  %236 = icmp slt i32 %233, %235
  br i1 %236, label %237, label %243

237:                                              ; preds = %229
  %238 = load ptr, ptr %18, align 8
  %239 = load i32, ptr %238, align 4
  %240 = load ptr, ptr %19, align 8
  %241 = load i32, ptr %240, align 4
  %242 = icmp slt i32 %239, %241
  br label %243

243:                                              ; preds = %237, %229
  %244 = phi i1 [ false, %229 ], [ %242, %237 ]
  %245 = zext i1 %244 to i32
  store i32 %245, ptr %10, align 4
  br label %246

246:                                              ; preds = %243, %62, %52
  %247 = load i32, ptr %10, align 4
  ret i32 %247
}