; Function Attrs: mustprogress nofree norecurse nosync nounwind willreturn memory(argmem: readwrite) uwtable
define hidden range(i32 0, 2) i32 @av1_loop_restoration_corners_in_sb(ptr noundef readonly captures(none) %0, i32 noundef %1, i32 noundef %2, i32 noundef %3, i8 noundef zeroext %4, ptr noundef captures(none) %5, ptr noundef captures(none) %6, ptr noundef captures(none) %7, ptr noundef writeonly captures(none) %8) local_unnamed_addr #5 {
  %10 = getelementptr inbounds nuw i8, ptr %0, i64 25212
  %11 = load i8, ptr %10, align 4
  %.not = icmp eq i8 %4, %11
  br i1 %.not, label %12, label %105

12:                                               ; preds = %9
  %13 = getelementptr inbounds nuw i8, ptr %0, i64 23608
  %14 = sext i32 %1 to i64
  %15 = getelementptr inbounds [3 x %struct.RestorationInfo], ptr %13, i64 0, i64 %14
  %16 = load i32, ptr %15, align 8
  %17 = icmp eq i32 %16, 0
  br i1 %17, label %105, label %18

18:                                               ; preds = %12
  %19 = icmp slt i32 %1, 1
  br i1 %19, label %av1_whole_frame_rect.exit, label %20

20:                                               ; preds = %18
  %21 = getelementptr inbounds nuw i8, ptr %0, i64 25280
  %22 = load i32, ptr %21, align 16
  %23 = icmp ne i32 %22, 0
  %24 = zext i1 %23 to i32
  %25 = getelementptr inbounds nuw i8, ptr %0, i64 25284
  %26 = load i32, ptr %25, align 4
  %27 = icmp ne i32 %26, 0
  %28 = zext i1 %27 to i32
  br label %av1_whole_frame_rect.exit

av1_whole_frame_rect.exit:                        ; preds = %18, %20
  %29 = phi i32 [ %24, %20 ], [ 0, %18 ]
  %30 = phi i32 [ %28, %20 ], [ 0, %18 ]
  %31 = getelementptr inbounds nuw i8, ptr %0, i64 460
  %32 = load i32, ptr %31, align 4
  %33 = shl nuw nsw i32 1, %30
  %34 = lshr i32 %33, 1
  %35 = add nsw i32 %34, %32
  %36 = ashr i32 %35, %30
  %37 = getelementptr inbounds nuw i8, ptr %0, i64 472
  %38 = load i32, ptr %37, align 8
  %39 = shl nuw nsw i32 1, %29
  %40 = lshr i32 %39, 1
  %41 = add nsw i32 %38, %40
  %42 = ashr i32 %41, %29
  %43 = zext i8 %4 to i64
  %44 = getelementptr inbounds nuw [22 x i8], ptr @mi_size_high, i64 0, i64 %43
  %45 = load i8, ptr %44, align 1
  %46 = zext i8 %45 to i32
  %47 = add nsw i32 %2, %46
  %48 = getelementptr inbounds nuw [22 x i8], ptr @mi_size_wide, i64 0, i64 %43
  %49 = load i8, ptr %48, align 1
  %50 = zext i8 %49 to i32
  %51 = add nsw i32 %3, %50
  %52 = getelementptr inbounds nuw i8, ptr %15, i64 4
  %53 = load i32, ptr %52, align 4
  %54 = ashr i32 %53, 1
  %55 = add nsw i32 %54, %42
  %56 = sdiv i32 %55, %53
  %spec.select.i = tail call range(i32 1, -2147483648) i32 @llvm.smax.i32(i32 %56, i32 1)
  %57 = add nsw i32 %54, %36
  %58 = sdiv i32 %57, %53
  %spec.select.i83 = tail call range(i32 1, -2147483648) i32 @llvm.smax.i32(i32 %58, i32 1)
  br i1 %19, label %67, label %59

59:                                               ; preds = %av1_whole_frame_rect.exit
  %60 = getelementptr inbounds nuw i8, ptr %0, i64 25280
  %61 = load i32, ptr %60, align 16
  %62 = icmp ne i32 %61, 0
  %63 = zext i1 %62 to i32
  %64 = getelementptr inbounds nuw i8, ptr %0, i64 25284
  %65 = load i32, ptr %64, align 4
  %.not79 = icmp eq i32 %65, 0
  %66 = select i1 %.not79, i32 2, i32 1
  br label %67

67:                                               ; preds = %av1_whole_frame_rect.exit, %59
  %68 = phi i32 [ %63, %59 ], [ 0, %av1_whole_frame_rect.exit ]
  %69 = phi i32 [ %66, %59 ], [ 2, %av1_whole_frame_rect.exit ]
  %70 = getelementptr i8, ptr %0, i64 456
  %.val = load i32, ptr %70, align 8
  %.not84 = icmp eq i32 %.val, %38
  br i1 %.not84, label %77, label %71

71:                                               ; preds = %67
  %72 = getelementptr inbounds nuw i8, ptr %0, i64 480
  %73 = load i8, ptr %72, align 16
  %74 = zext i8 %73 to i32
  %75 = sub nuw nsw i32 2, %68
  %76 = shl nuw nsw i32 %74, %75
  br label %79

77:                                               ; preds = %67
  %78 = lshr exact i32 4, %68
  br label %79

79:                                               ; preds = %77, %71
  %80 = phi i32 [ %76, %71 ], [ %78, %77 ]
  %81 = shl nsw i32 %53, 3
  %82 = select i1 %.not84, i32 %53, i32 %81
  %83 = add nsw i32 %82, -1
  %84 = add nsw i32 %53, -1
  %85 = mul nsw i32 %80, %3
  %86 = add nsw i32 %85, %83
  %87 = sdiv i32 %86, %82
  store i32 %87, ptr %5, align 4
  %88 = shl i32 %2, %69
  %89 = add nsw i32 %88, %84
  %90 = sdiv i32 %89, %53
  store i32 %90, ptr %7, align 4
  %91 = mul nsw i32 %80, %51
  %92 = add nsw i32 %91, %83
  %93 = sdiv i32 %92, %82
  %. = tail call i32 @llvm.smin.i32(i32 %93, i32 %spec.select.i)
  store i32 %., ptr %6, align 4
  %94 = shl i32 %47, %69
  %95 = add nsw i32 %94, %84
  %96 = sdiv i32 %95, %53
  %97 = tail call i32 @llvm.smin.i32(i32 %96, i32 %spec.select.i83)
  store i32 %97, ptr %8, align 4
  %98 = load i32, ptr %5, align 4
  %99 = load i32, ptr %6, align 4
  %100 = icmp slt i32 %98, %99
  br i1 %100, label %101, label %105

101:                                              ; preds = %79
  %102 = load i32, ptr %7, align 4
  %103 = icmp slt i32 %102, %97
  %104 = zext i1 %103 to i32
  br label %105

105:                                              ; preds = %79, %101, %12, %9
  %.0 = phi i32 [ 0, %9 ], [ 0, %12 ], [ 0, %79 ], [ %104, %101 ]
  ret i32 %.0
}